-----BEGIN PRIVATE KEY-----
MIIEvQIBADANBgkqhkiG9w0BAQEFAASCBKcwggSjAgEAAoIBAQCl5YvmkTx5xoUD
QtC1Tj0hQVyP6Cflg3gpTuVgDVe933yUVVQclJVh01KlPXTizldQExu4u0+TCIOP
rtP6fQ4NBqY8d/Cf4YSuynniW5oLVOCYiQ8oBYa9Peih6tGrrPEp0YVg0NBv+Xza
0l7HEqkOB5HTjK+KxVAgVvuUUlK8Kn7ggOWypPzRikcLjFUhzVDkuq6Ihm6aoeAM
BMRcbcUnbnKA38Srf1ofCS9fA5vSUiPIsYAy4I6Zr6QeO+mf3IAXNyuRjRuaHlq+
9M1y3X49/bUIDCmtb7lDcu3Vfe1/lO+Z0g1vdL4K8rYNs5OurqxnqpRnI/4j7kZZ
W05ggaKBAgMBAAECggEAQxc6JNzHoFfwowj6bthdUH2meWxh9ifdCJenm9jJizg+
oZ6Aja5pW06jNcBM7QyVswSHSYY3ADeJPSpu//ZjIFF4GSxIW+BQUIACGtEA02RY
EFgdkQnrG81Vr2XPtaYTQd5CGo1YPnCfVb+OJOQfClV1XCChPXXembWTuMAyRXYj
RIIb8+NDcyFivU2RMnYHVLCOXZ2AiSBMs+0cQtcCFHqb/PbSqDa73ARRxuKxD4S+
SUeN8FHEos1KnRZ1V1dSzFdKjgvUkoRhl7Yvs3/8SYEt1AtMfwr2tMIQaGjVtvS1
3LSgzRTzxeXine9CWklyTOwZNOQJGMwtCzA5FSHOIQKBgQDYpdAsi11HF000yJD0
I3IymrbRDV2cG5WUTRLsdQnzfKqObEhIVjyDOSgaekm7SygtHQbrRN0rT3/izqcK
KKSPwDo2oI0gV6CayViUB3z9c29+d1GNb6dIthL17VUSRuokNKx+ZoekyaX2hkJ4
iAdxDJnJzmxjNCBb8rAVxcNezwKBgQDEB8s5Do+UIUWXfXkw7ja0yZdYvx7zCm//
NNfg3im9nr4rGNCD/gIfvQA+R6rjDny+DL1ximnNQw8YJBFBnx9sUy5/l4kJG3XA
TmWtJ9hGl20lvzxENOboBDX1y/GMVE6QMQqxP+NG5RlblI9Q/oNBoWXink6wrjox
kvjCovu9rwKBgFEBxxIw1iLz4ol/CTxQWK31TbBjWAI8CjUWkKHbrWnezoNMl8Z8
gEnswEMOQK2Ij7A2r1SfPjeolUAAV1MkGUwq61lrtPlH6qSV7soC9shqNmFKSjMh
caJtei98m5em7nu1Ol5VBhkm0SiZ0Rbyfh3WQVbFGaAKaKMY3qB1fvTfAoGAT7qX
xjIM5YOOyWmIBAWvDGK9gqPhE5qYKKU2dEgHlA7fa6nhDP4foQb+9VWyxDydMbL+
zhIsrAZtOjVZK2ZromRGkjBw1NptTvTT19RP2441H1gjS950V8N2quzy5k9X0L+R
iLviVXBSmvPWQmvxuJzLUptuh9+k3YrYUFl3qBMCgYEAy5Ok+TiOJWZristQTVDq
Bysfg+hCuR8lZRfvxlIf8otqZJodHxx5OTXCRKa4uK9E7gQCJ7MyDD8AwFd/bzUk
h2iauPDt3A2V32QMoKGOAyzuAq4EjS3aKXBhB2YgeMH1Db3dkpbczJIKrunSSn5F
KNc6XxCdqZEwoxkc8iYByuE=
-----END PRIVATE KEY-----
Certificate:
    Data:
        Version: 1 (0x0)
        Serial Number: 9 (0x9)
    Signature Algorithm: sha1WithRSAEncryption
        Issuer: O=CONVERMAX CORP./emailAddress=admin@convermax.com, L=Las Vegas, ST=Nevada, C=US, CN=convermax.com
        Validity
            Not Before: Nov  4 13:12:36 2014 GMT
            Not After : Nov  4 13:12:36 2015 GMT
        Subject: C=US, ST=New York, O=PrestaShop Demo, CN=prestashop.convermax.com
        Subject Public Key Info:
            Public Key Algorithm: rsaEncryption
                Public-Key: (2048 bit)
                Modulus:
                    00:a5:e5:8b:e6:91:3c:79:c6:85:03:42:d0:b5:4e:
                    3d:21:41:5c:8f:e8:27:e5:83:78:29:4e:e5:60:0d:
                    57:bd:df:7c:94:55:54:1c:94:95:61:d3:52:a5:3d:
                    74:e2:ce:57:50:13:1b:b8:bb:4f:93:08:83:8f:ae:
                    d3:fa:7d:0e:0d:06:a6:3c:77:f0:9f:e1:84:ae:ca:
                    79:e2:5b:9a:0b:54:e0:98:89:0f:28:05:86:bd:3d:
                    e8:a1:ea:d1:ab:ac:f1:29:d1:85:60:d0:d0:6f:f9:
                    7c:da:d2:5e:c7:12:a9:0e:07:91:d3:8c:af:8a:c5:
                    50:20:56:fb:94:52:52:bc:2a:7e:e0:80:e5:b2:a4:
                    fc:d1:8a:47:0b:8c:55:21:cd:50:e4:ba:ae:88:86:
                    6e:9a:a1:e0:0c:04:c4:5c:6d:c5:27:6e:72:80:df:
                    c4:ab:7f:5a:1f:09:2f:5f:03:9b:d2:52:23:c8:b1:
                    80:32:e0:8e:99:af:a4:1e:3b:e9:9f:dc:80:17:37:
                    2b:91:8d:1b:9a:1e:5a:be:f4:cd:72:dd:7e:3d:fd:
                    b5:08:0c:29:ad:6f:b9:43:72:ed:d5:7d:ed:7f:94:
                    ef:99:d2:0d:6f:74:be:0a:f2:b6:0d:b3:93:ae:ae:
                    ac:67:aa:94:67:23:fe:23:ee:46:59:5b:4e:60:81:
                    a2:81
                Exponent: 65537 (0x10001)
    Signature Algorithm: sha1WithRSAEncryption
         17:bc:53:38:0d:ce:a8:e4:f0:e2:35:55:b5:15:e6:5e:f9:b0:
         62:be:95:0d:68:6f:6e:d5:3e:7f:af:74:fd:7f:05:66:e4:b9:
         9d:ae:d1:77:15:61:4a:e8:f9:6b:80:c2:f0:83:e6:15:5f:7d:
         5c:f9:cd:dc:8d:93:1e:ba:20:be:e8:eb:54:20:fb:a1:af:bf:
         78:49:98:0c:78:c7:65:a2:be:7a:51:0f:a9:61:67:57:59:01:
         53:94:c5:9f:75:eb:72:15:b0:50:7f:09:68:1a:68:34:92:dd:
         ee:d4:1c:d2:33:15:25:e6:a0:f1:1b:8e:62:2e:cd:81:9c:0f:
         25:ad:47:3b:4b:ef:c3:b2:d3:bf:a7:72:88:0b:06:7e:cb:3f:
         ae:6a:54:38:47:64:d3:c8:9e:34:bc:fe:42:21:a2:a4:9f:95:
         a9:59:1b:49:8d:12:13:c6:01:bd:1c:ce:28:91:ab:90:af:86:
         f4:22:16:29:78:cf:52:d3:db:c5:b3:44:45:ef:5b:60:af:dc:
         3a:c7:f2:a1:a7:90:56:3b:29:ce:df:65:f1:05:74:b4:a9:be:
         84:85:36:66:6f:0a:be:19:9a:6a:19:03:c3:14:ce:a1:f6:c9:
         c4:be:34:68:63:f1:f3:17:42:3c:6b:34:6e:b8:3e:a9:17:c3:
         b3:df:c7:ec
-----BEGIN CERTIFICATE-----
MIIDWjCCAkICAQkwDQYJKoZIhvcNAQEFBQAwgYgxGDAWBgNVBAoTD0NPTlZFUk1B
WCBDT1JQLjEiMCAGCSqGSIb3DQEJARYTYWRtaW5AY29udmVybWF4LmNvbTESMBAG
A1UEBxMJTGFzIFZlZ2FzMQ8wDQYDVQQIEwZOZXZhZGExCzAJBgNVBAYTAlVTMRYw
FAYDVQQDEw1jb252ZXJtYXguY29tMB4XDTE0MTEwNDEzMTIzNloXDTE1MTEwNDEz
MTIzNlowXTELMAkGA1UEBhMCVVMxETAPBgNVBAgTCE5ldyBZb3JrMRgwFgYDVQQK
Ew9QcmVzdGFTaG9wIERlbW8xITAfBgNVBAMTGHByZXN0YXNob3AuY29udmVybWF4
LmNvbTCCASIwDQYJKoZIhvcNAQEBBQADggEPADCCAQoCggEBAKXli+aRPHnGhQNC
0LVOPSFBXI/oJ+WDeClO5WANV73ffJRVVByUlWHTUqU9dOLOV1ATG7i7T5MIg4+u
0/p9Dg0Gpjx38J/hhK7KeeJbmgtU4JiJDygFhr096KHq0aus8SnRhWDQ0G/5fNrS
XscSqQ4HkdOMr4rFUCBW+5RSUrwqfuCA5bKk/NGKRwuMVSHNUOS6roiGbpqh4AwE
xFxtxSducoDfxKt/Wh8JL18Dm9JSI8ixgDLgjpmvpB476Z/cgBc3K5GNG5oeWr70
zXLdfj39tQgMKa1vuUNy7dV97X+U75nSDW90vgrytg2zk66urGeqlGcj/iPuRllb
TmCBooECAwEAATANBgkqhkiG9w0BAQUFAAOCAQEAF7xTOA3OqOTw4jVVtRXmXvmw
Yr6VDWhvbtU+f690/X8FZuS5na7RdxVhSuj5a4DC8IPmFV99XPnN3I2THrogvujr
VCD7oa+/eEmYDHjHZaK+elEPqWFnV1kBU5TFn3XrchWwUH8JaBpoNJLd7tQc0jMV
Jeag8RuOYi7NgZwPJa1HO0vvw7LTv6dyiAsGfss/rmpUOEdk08ieNLz+QiGipJ+V
qVkbSY0SE8YBvRzOKJGrkK+G9CIWKXjPUtPbxbNERe9bYK/cOsfyoaeQVjspzt9l
8QV0tKm+hIU2Zm8KvhmaahkDwxTOofbJxL40aGPx8xdCPGs0brg+qRfDs9/H7A==
-----END CERTIFICATE-----
